; Function Attrs: mustprogress uwtable
define hidden void @_ZN4lean10update_letERKNS_4exprES2_S2_S2_(ptr dead_on_unwind noalias writable writeonly sret(%"class.lean::expr") align 8 captures(none) initializes((0, 8)) %0, ptr noundef nonnull readonly align 8 captures(none) dereferenceable(8) %1, ptr noundef nonnull readonly align 8 captures(none) dereferenceable(8) %2, ptr noundef nonnull readonly align 8 captures(none) dereferenceable(8) %3, ptr noundef nonnull readonly align 8 captures(none) dereferenceable(8) %4) local_unnamed_addr #0 {
  %6 = load ptr, ptr %1, align 8, !tbaa !10
  %7 = getelementptr inbounds nuw i8, ptr %6, i64 16
  %8 = load ptr, ptr %7, align 8, !tbaa !10
  %9 = load ptr, ptr %2, align 8, !tbaa !10
  %10 = icmp eq ptr %8, %9
  br i1 %10, label %11, label %21

11:                                               ; preds = %5
  %12 = getelementptr inbounds nuw i8, ptr %6, i64 24
  %13 = load ptr, ptr %12, align 8, !tbaa !10
  %14 = load ptr, ptr %3, align 8, !tbaa !10
  %15 = icmp eq ptr %13, %14
  br i1 %15, label %16, label %21

16:                                               ; preds = %11
  %17 = getelementptr inbounds nuw i8, ptr %6, i64 32
  %18 = load ptr, ptr %17, align 8, !tbaa !10
  %19 = load ptr, ptr %4, align 8, !tbaa !10
  %20 = icmp eq ptr %18, %19
  br i1 %20, label %23, label %21

21:                                               ; preds = %16, %11, %5
  %22 = getelementptr inbounds nuw i8, ptr %6, i64 8
  tail call void @_ZN4lean6mk_letERKNS_4nameERKNS_4exprES5_S5_(ptr dead_on_unwind writable sret(%"class.lean::expr") align 8 %0, ptr noundef nonnull align 8 dereferenceable(8) %22, ptr noundef nonnull align 8 dereferenceable(8) %2, ptr noundef nonnull align 8 dereferenceable(8) %3, ptr noundef nonnull align 8 dereferenceable(8) %4)
  br label %_ZN4lean4exprC2ERKS0_.exit

23:                                               ; preds = %16
  store ptr %6, ptr %0, align 8, !tbaa !10
  %24 = ptrtoint ptr %6 to i64
  %25 = and i64 %24, 1
  %.not.i.i.i = icmp eq i64 %25, 0
  br i1 %.not.i.i.i, label %26, label %_ZN4lean4exprC2ERKS0_.exit

26:                                               ; preds = %23
  %.val.i.i.i.i = load i32, ptr %6, align 4, !tbaa !21
  %27 = icmp sgt i32 %.val.i.i.i.i, 0
  br i1 %27, label %28, label %30, !prof !24

28:                                               ; preds = %26
  %29 = add nuw nsw i32 %.val.i.i.i.i, 1
  store i32 %29, ptr %6, align 4, !tbaa !21
  br label %_ZN4lean4exprC2ERKS0_.exit

30:                                               ; preds = %26
  %.not.i.i.i.i = icmp eq i32 %.val.i.i.i.i, 0
  br i1 %.not.i.i.i.i, label %_ZN4lean4exprC2ERKS0_.exit, label %31

31:                                               ; preds = %30
  tail call void @lean_inc_ref_cold(ptr noundef nonnull %6)
  br label %_ZN4lean4exprC2ERKS0_.exit

_ZN4lean4exprC2ERKS0_.exit:                       ; preds = %31, %30, %28, %23, %21
  ret void
}